; Function Attrs: nounwind uwtable
define dso_local void @InvalidatePublicationRels(ptr noundef readonly captures(address_is_null) %0) local_unnamed_addr #0 {
  %.not.i = icmp eq ptr %0, null
  br i1 %.not.i, label %.thread, label %list_length.exit

list_length.exit:                                 ; preds = %1
  %2 = getelementptr inbounds nuw i8, ptr %0, i64 4
  %3 = load i32, ptr %2, align 4
  %4 = icmp slt i32 %3, 4096
  br i1 %4, label %.lr.ph, label %15

.lr.ph:                                           ; preds = %list_length.exit
  %5 = getelementptr inbounds nuw i8, ptr %0, i64 4
  %6 = getelementptr inbounds nuw i8, ptr %0, i64 16
  %7 = load i32, ptr %5, align 4
  %8 = icmp sgt i32 %7, 0
  br i1 %8, label %.critedge, label %.thread

.critedge:                                        ; preds = %.lr.ph, %.critedge
  %indvars.iv = phi i64 [ %indvars.iv.next, %.critedge ], [ 0, %.lr.ph ]
  %9 = load ptr, ptr %6, align 8
  %10 = getelementptr inbounds nuw %union.ListCell, ptr %9, i64 %indvars.iv
  %11 = load i32, ptr %10, align 8
  tail call void @CacheInvalidateRelcacheByRelid(i32 noundef %11) #8
  %indvars.iv.next = add nuw nsw i64 %indvars.iv, 1
  %12 = load i32, ptr %5, align 4
  %13 = sext i32 %12 to i64
  %14 = icmp slt i64 %indvars.iv.next, %13
  br i1 %14, label %.critedge, label %.thread

15:                                               ; preds = %list_length.exit
  tail call void @CacheInvalidateRelcacheAll() #8
  br label %.thread

.thread:                                          ; preds = %.critedge, %1, %.lr.ph, %15
  ret void
}